target datalayout = "e-m:e-p270:32:32-p271:32:32-p272:64:64-i64:64-i128:128-f80:128-n8:16:32:64-S128"
target triple = "x86_64-unknown-linux-gnu"

%"class.std::vector" = type { %"struct.std::_Vector_base" }
%"struct.std::_Vector_base" = type { %"struct.std::_Vector_base<double, std::allocator<double>>::_Vector_impl" }
%"struct.std::_Vector_base<double, std::allocator<double>>::_Vector_impl" = type { %"struct.std::_Vector_base<double, std::allocator<double>>::_Vector_impl_data" }
%"struct.std::_Vector_base<double, std::allocator<double>>::_Vector_impl_data" = type { ptr, ptr, ptr }
%"class.QuantLib::MultiStepRatchet" = type { %"class.QuantLib::MultiProductMultiStep", %"class.std::vector", %"class.std::vector", double, double, double, double, double, i64, double, double, i64 }
%"class.QuantLib::MultiProductMultiStep" = type { %"class.QuantLib::MarketModelMultiProduct", %"class.std::vector", %"class.QuantLib::EvolutionDescription" }
%"class.QuantLib::MarketModelMultiProduct" = type { ptr }
%"class.QuantLib::EvolutionDescription" = type { i64, %"class.std::vector", %"class.std::vector", %"class.std::vector.0", %"class.std::vector", %"class.std::vector.5" }
%"class.std::vector.0" = type { %"struct.std::_Vector_base.1" }
%"struct.std::_Vector_base.1" = type { %"struct.std::_Vector_base<std::pair<unsigned long, unsigned long>, std::allocator<std::pair<unsigned long, unsigned long>>>::_Vector_impl" }
%"struct.std::_Vector_base<std::pair<unsigned long, unsigned long>, std::allocator<std::pair<unsigned long, unsigned long>>>::_Vector_impl" = type { %"struct.std::_Vector_base<std::pair<unsigned long, unsigned long>, std::allocator<std::pair<unsigned long, unsigned long>>>::_Vector_impl_data" }
%"struct.std::_Vector_base<std::pair<unsigned long, unsigned long>, std::allocator<std::pair<unsigned long, unsigned long>>>::_Vector_impl_data" = type { ptr, ptr, ptr }
%"class.std::vector.5" = type { %"struct.std::_Vector_base.6" }
%"struct.std::_Vector_base.6" = type { %"struct.std::_Vector_base<unsigned long, std::allocator<unsigned long>>::_Vector_impl" }
%"struct.std::_Vector_base<unsigned long, std::allocator<unsigned long>>::_Vector_impl" = type { %"struct.std::_Vector_base<unsigned long, std::allocator<unsigned long>>::_Vector_impl_data" }
%"struct.std::_Vector_base<unsigned long, std::allocator<unsigned long>>::_Vector_impl_data" = type { ptr, ptr, ptr }
%"struct.QuantLib::MarketModelMultiProduct::CashFlow" = type { i64, double }
%"struct.std::_Vector_base.11" = type { %"struct.std::_Vector_base<std::vector<QuantLib::MarketModelMultiProduct::CashFlow>, std::allocator<std::vector<QuantLib::MarketModelMultiProduct::CashFlow>>>::_Vector_impl" }
%"struct.std::_Vector_base<std::vector<QuantLib::MarketModelMultiProduct::CashFlow>, std::allocator<std::vector<QuantLib::MarketModelMultiProduct::CashFlow>>>::_Vector_impl" = type { %"struct.std::_Vector_base<std::vector<QuantLib::MarketModelMultiProduct::CashFlow>, std::allocator<std::vector<QuantLib::MarketModelMultiProduct::CashFlow>>>::_Vector_impl_data" }
%"struct.std::_Vector_base<std::vector<QuantLib::MarketModelMultiProduct::CashFlow>, std::allocator<std::vector<QuantLib::MarketModelMultiProduct::CashFlow>>>::_Vector_impl_data" = type { ptr, ptr, ptr }
%"class.std::vector.15" = type { %"struct.std::_Vector_base.16" }
%"struct.std::_Vector_base.16" = type { %"struct.std::_Vector_base<QuantLib::MarketModelMultiProduct::CashFlow, std::allocator<QuantLib::MarketModelMultiProduct::CashFlow>>::_Vector_impl" }
%"struct.std::_Vector_base<QuantLib::MarketModelMultiProduct::CashFlow, std::allocator<QuantLib::MarketModelMultiProduct::CashFlow>>::_Vector_impl" = type { %"struct.std::_Vector_base<QuantLib::MarketModelMultiProduct::CashFlow, std::allocator<QuantLib::MarketModelMultiProduct::CashFlow>>::_Vector_impl_data" }
%"struct.std::_Vector_base<QuantLib::MarketModelMultiProduct::CashFlow, std::allocator<QuantLib::MarketModelMultiProduct::CashFlow>>::_Vector_impl_data" = type { ptr, ptr, ptr }

; Function Attrs: mustprogress nounwind uwtable
define linkonce_odr noundef nonnull align 8 dereferenceable(8) ptr @_ZNSt6vectorImSaImEEixEm(ptr noundef nonnull align 8 dereferenceable(24) %this, i64 noundef %__n) #3 comdat align 2 {
entry:
  %this.addr = alloca ptr, align 8
  %__n.addr = alloca i64, align 8
  store ptr %this, ptr %this.addr, align 8, !tbaa !3
  store i64 %__n, ptr %__n.addr, align 8, !tbaa !46
  %this1 = load ptr, ptr %this.addr, align 8
  %_M_impl = getelementptr inbounds nuw %"struct.std::_Vector_base.6", ptr %this1, i32 0, i32 0
  %_M_start = getelementptr inbounds nuw %"struct.std::_Vector_base<unsigned long, std::allocator<unsigned long>>::_Vector_impl_data", ptr %_M_impl, i32 0, i32 0
  %0 = load ptr, ptr %_M_start, align 8, !tbaa !51
  %1 = load i64, ptr %__n.addr, align 8, !tbaa !46
  %add.ptr = getelementptr inbounds nuw i64, ptr %0, i64 %1
  ret ptr %add.ptr
}

; Function Attrs: mustprogress nounwind uwtable
define linkonce_odr noundef nonnull align 8 dereferenceable(8) ptr @_ZNSt6vectorIdSaIdEEixEm(ptr noundef nonnull align 8 dereferenceable(24) %this, i64 noundef %__n) #3 comdat align 2 {
entry:
  %this.addr = alloca ptr, align 8
  %__n.addr = alloca i64, align 8
  store ptr %this, ptr %this.addr, align 8, !tbaa !3
  store i64 %__n, ptr %__n.addr, align 8, !tbaa !46
  %this1 = load ptr, ptr %this.addr, align 8
  %_M_impl = getelementptr inbounds nuw %"struct.std::_Vector_base", ptr %this1, i32 0, i32 0
  %_M_start = getelementptr inbounds nuw %"struct.std::_Vector_base<double, std::allocator<double>>::_Vector_impl_data", ptr %_M_impl, i32 0, i32 0
  %0 = load ptr, ptr %_M_start, align 8, !tbaa !7
  %1 = load i64, ptr %__n.addr, align 8, !tbaa !46
  %add.ptr = getelementptr inbounds nuw double, ptr %0, i64 %1
  ret ptr %add.ptr
}

; Function Attrs: mustprogress nounwind uwtable
define linkonce_odr noundef nonnull align 8 dereferenceable(16) ptr @_ZNSt6vectorIN8QuantLib23MarketModelMultiProduct8CashFlowESaIS2_EEixEm(ptr noundef nonnull align 8 dereferenceable(24) %this, i64 noundef %__n) #3 comdat align 2 {
entry:
  %this.addr = alloca ptr, align 8
  %__n.addr = alloca i64, align 8
  store ptr %this, ptr %this.addr, align 8, !tbaa !3
  store i64 %__n, ptr %__n.addr, align 8, !tbaa !46
  %this1 = load ptr, ptr %this.addr, align 8
  %_M_impl = getelementptr inbounds nuw %"struct.std::_Vector_base.16", ptr %this1, i32 0, i32 0
  %_M_start = getelementptr inbounds nuw %"struct.std::_Vector_base<QuantLib::MarketModelMultiProduct::CashFlow, std::allocator<QuantLib::MarketModelMultiProduct::CashFlow>>::_Vector_impl_data", ptr %_M_impl, i32 0, i32 0
  %0 = load ptr, ptr %_M_start, align 8, !tbaa !49
  %1 = load i64, ptr %__n.addr, align 8, !tbaa !46
  %add.ptr = getelementptr inbounds nuw %"struct.QuantLib::MarketModelMultiProduct::CashFlow", ptr %0, i64 %1
  ret ptr %add.ptr
}

; Function Attrs: mustprogress nounwind uwtable
define linkonce_odr noundef nonnull align 8 dereferenceable(24) ptr @_ZNSt6vectorIS_IN8QuantLib23MarketModelMultiProduct8CashFlowESaIS2_EESaIS4_EEixEm(ptr noundef nonnull align 8 dereferenceable(24) %this, i64 noundef %__n) #3 comdat align 2 {
entry:
  %this.addr = alloca ptr, align 8
  %__n.addr = alloca i64, align 8
  store ptr %this, ptr %this.addr, align 8, !tbaa !3
  store i64 %__n, ptr %__n.addr, align 8, !tbaa !46
  %this1 = load ptr, ptr %this.addr, align 8
  %_M_impl = getelementptr inbounds nuw %"struct.std::_Vector_base.11", ptr %this1, i32 0, i32 0
  %_M_start = getelementptr inbounds nuw %"struct.std::_Vector_base<std::vector<QuantLib::MarketModelMultiProduct::CashFlow>, std::allocator<std::vector<QuantLib::MarketModelMultiProduct::CashFlow>>>::_Vector_impl_data", ptr %_M_impl, i32 0, i32 0
  %0 = load ptr, ptr %_M_start, align 8, !tbaa !47
  %1 = load i64, ptr %__n.addr, align 8, !tbaa !46
  %add.ptr = getelementptr inbounds nuw %"class.std::vector.15", ptr %0, i64 %1
  ret ptr %add.ptr
}

; Function Attrs: inlinehint mustprogress nounwind uwtable
define linkonce_odr noundef nonnull align 8 dereferenceable(8) ptr @_ZSt3maxIdERKT_S2_S2_(ptr noundef nonnull align 8 dereferenceable(8) %__a, ptr noundef nonnull align 8 dereferenceable(8) %__b) #4 comdat {
entry:
  %retval = alloca ptr, align 8
  %__a.addr = alloca ptr, align 8
  %__b.addr = alloca ptr, align 8
  store ptr %__a, ptr %__a.addr, align 8, !tbaa !3
  store ptr %__b, ptr %__b.addr, align 8, !tbaa !3
  %0 = load ptr, ptr %__a.addr, align 8, !tbaa !3
  %1 = load double, ptr %0, align 8, !tbaa !10
  %2 = load ptr, ptr %__b.addr, align 8, !tbaa !3
  %3 = load double, ptr %2, align 8, !tbaa !10
  %cmp = fcmp olt double %1, %3
  br i1 %cmp, label %if.then, label %if.end

if.then:                                          ; preds = %entry
  %4 = load ptr, ptr %__b.addr, align 8, !tbaa !3
  store ptr %4, ptr %retval, align 8
  br label %return

if.end:                                           ; preds = %entry
  %5 = load ptr, ptr %__a.addr, align 8, !tbaa !3
  store ptr %5, ptr %retval, align 8
  br label %return

return:                                           ; preds = %if.end, %if.then
  %6 = load ptr, ptr %retval, align 8
  ret ptr %6
}

; Function Attrs: mustprogress uwtable
define noundef zeroext i1 @_ZN8QuantLib16MultiStepRatchet12nextTimeStepERKNS_10CurveStateERSt6vectorImSaImEERS4_IS4_INS_23MarketModelMultiProduct8CashFlowESaIS9_EESaISB_EE(ptr noundef nonnull align 8 dereferenceable(280) %this, ptr noundef nonnull align 8 dereferenceable(64) %currentState, ptr noundef nonnull align 8 dereferenceable(24) %numberCashFlowsThisStep, ptr noundef nonnull align 8 dereferenceable(24) %genCashFlows) unnamed_addr #1 align 2 {
entry:
  %this.addr = alloca ptr, align 8
  %currentState.addr = alloca ptr, align 8
  %numberCashFlowsThisStep.addr = alloca ptr, align 8
  %genCashFlows.addr = alloca ptr, align 8
  %liborRate = alloca double, align 8
  %currentCoupon = alloca double, align 8
  %ref.tmp = alloca double, align 8
  %ref.tmp2 = alloca double, align 8
  store ptr %this, ptr %this.addr, align 8, !tbaa !3
  store ptr %currentState, ptr %currentState.addr, align 8, !tbaa !3
  store ptr %numberCashFlowsThisStep, ptr %numberCashFlowsThisStep.addr, align 8, !tbaa !3
  store ptr %genCashFlows, ptr %genCashFlows.addr, align 8, !tbaa !3
  %this1 = load ptr, ptr %this.addr, align 8
  call void @llvm.lifetime.start.p0(i64 8, ptr %liborRate) #14
  %0 = load ptr, ptr %currentState.addr, align 8, !tbaa !3
  %currentIndex_ = getelementptr inbounds nuw %"class.QuantLib::MultiStepRatchet", ptr %this1, i32 0, i32 11
  %1 = load i64, ptr %currentIndex_, align 8, !tbaa !41
  %vtable = load ptr, ptr %0, align 8, !tbaa !14
  %vfn = getelementptr inbounds ptr, ptr %vtable, i64 3
  %2 = load ptr, ptr %vfn, align 8
  %call = call noundef double %2(ptr noundef nonnull align 8 dereferenceable(64) %0, i64 noundef %1)
  store double %call, ptr %liborRate, align 8, !tbaa !10
  call void @llvm.lifetime.start.p0(i64 8, ptr %currentCoupon) #14
  call void @llvm.lifetime.start.p0(i64 8, ptr %ref.tmp) #14
  %gearingOfFloor_ = getelementptr inbounds nuw %"class.QuantLib::MultiStepRatchet", ptr %this1, i32 0, i32 3
  %3 = load double, ptr %gearingOfFloor_, align 8, !tbaa !16
  %floor_ = getelementptr inbounds nuw %"class.QuantLib::MultiStepRatchet", ptr %this1, i32 0, i32 10
  %4 = load double, ptr %floor_, align 8, !tbaa !42
  %spreadOfFloor_ = getelementptr inbounds nuw %"class.QuantLib::MultiStepRatchet", ptr %this1, i32 0, i32 5
  %5 = load double, ptr %spreadOfFloor_, align 8, !tbaa !34
  %6 = call double @llvm.fmuladd.f64(double %3, double %4, double %5)
  store double %6, ptr %ref.tmp, align 8, !tbaa !10
  call void @llvm.lifetime.start.p0(i64 8, ptr %ref.tmp2) #14
  %gearingOfFixing_ = getelementptr inbounds nuw %"class.QuantLib::MultiStepRatchet", ptr %this1, i32 0, i32 4
  %7 = load double, ptr %gearingOfFixing_, align 8, !tbaa !33
  %8 = load double, ptr %liborRate, align 8, !tbaa !10
  %spreadOfFixing_ = getelementptr inbounds nuw %"class.QuantLib::MultiStepRatchet", ptr %this1, i32 0, i32 6
  %9 = load double, ptr %spreadOfFixing_, align 8, !tbaa !35
  %10 = call double @llvm.fmuladd.f64(double %7, double %8, double %9)
  store double %10, ptr %ref.tmp2, align 8, !tbaa !10
  %call3 = call noundef nonnull align 8 dereferenceable(8) ptr @_ZSt3maxIdERKT_S2_S2_(ptr noundef nonnull align 8 dereferenceable(8) %ref.tmp, ptr noundef nonnull align 8 dereferenceable(8) %ref.tmp2)
  %11 = load double, ptr %call3, align 8, !tbaa !10
  call void @llvm.lifetime.end.p0(i64 8, ptr %ref.tmp2) #14
  call void @llvm.lifetime.end.p0(i64 8, ptr %ref.tmp) #14
  store double %11, ptr %currentCoupon, align 8, !tbaa !10
  %currentIndex_4 = getelementptr inbounds nuw %"class.QuantLib::MultiStepRatchet", ptr %this1, i32 0, i32 11
  %12 = load i64, ptr %currentIndex_4, align 8, !tbaa !41
  %13 = load ptr, ptr %genCashFlows.addr, align 8, !tbaa !3
  %call5 = call noundef nonnull align 8 dereferenceable(24) ptr @_ZNSt6vectorIS_IN8QuantLib23MarketModelMultiProduct8CashFlowESaIS2_EESaIS4_EEixEm(ptr noundef nonnull align 8 dereferenceable(24) %13, i64 noundef 0) #14
  %call6 = call noundef nonnull align 8 dereferenceable(16) ptr @_ZNSt6vectorIN8QuantLib23MarketModelMultiProduct8CashFlowESaIS2_EEixEm(ptr noundef nonnull align 8 dereferenceable(24) %call5, i64 noundef 0) #14
  %timeIndex = getelementptr inbounds nuw %"struct.QuantLib::MarketModelMultiProduct::CashFlow", ptr %call6, i32 0, i32 0
  store i64 %12, ptr %timeIndex, align 8, !tbaa !43
  %multiplier_ = getelementptr inbounds nuw %"class.QuantLib::MultiStepRatchet", ptr %this1, i32 0, i32 7
  %14 = load double, ptr %multiplier_, align 8, !tbaa !38
  %accruals_ = getelementptr inbounds nuw %"class.QuantLib::MultiStepRatchet", ptr %this1, i32 0, i32 1
  %currentIndex_7 = getelementptr inbounds nuw %"class.QuantLib::MultiStepRatchet", ptr %this1, i32 0, i32 11
  %15 = load i64, ptr %currentIndex_7, align 8, !tbaa !41
  %call8 = call noundef nonnull align 8 dereferenceable(8) ptr @_ZNSt6vectorIdSaIdEEixEm(ptr noundef nonnull align 8 dereferenceable(24) %accruals_, i64 noundef %15) #14
  %16 = load double, ptr %call8, align 8, !tbaa !10
  %mul = fmul double %14, %16
  %17 = load double, ptr %currentCoupon, align 8, !tbaa !10
  %mul9 = fmul double %mul, %17
  %18 = load ptr, ptr %genCashFlows.addr, align 8, !tbaa !3
  %call10 = call noundef nonnull align 8 dereferenceable(24) ptr @_ZNSt6vectorIS_IN8QuantLib23MarketModelMultiProduct8CashFlowESaIS2_EESaIS4_EEixEm(ptr noundef nonnull align 8 dereferenceable(24) %18, i64 noundef 0) #14
  %call11 = call noundef nonnull align 8 dereferenceable(16) ptr @_ZNSt6vectorIN8QuantLib23MarketModelMultiProduct8CashFlowESaIS2_EEixEm(ptr noundef nonnull align 8 dereferenceable(24) %call10, i64 noundef 0) #14
  %amount = getelementptr inbounds nuw %"struct.QuantLib::MarketModelMultiProduct::CashFlow", ptr %call11, i32 0, i32 1
  store double %mul9, ptr %amount, align 8, !tbaa !45
  %19 = load double, ptr %currentCoupon, align 8, !tbaa !10
  %floor_12 = getelementptr inbounds nuw %"class.QuantLib::MultiStepRatchet", ptr %this1, i32 0, i32 10
  store double %19, ptr %floor_12, align 8, !tbaa !42
  %20 = load ptr, ptr %numberCashFlowsThisStep.addr, align 8, !tbaa !3
  %call13 = call noundef nonnull align 8 dereferenceable(8) ptr @_ZNSt6vectorImSaImEEixEm(ptr noundef nonnull align 8 dereferenceable(24) %20, i64 noundef 0) #14
  store i64 1, ptr %call13, align 8, !tbaa !46
  %currentIndex_14 = getelementptr inbounds nuw %"class.QuantLib::MultiStepRatchet", ptr %this1, i32 0, i32 11
  %21 = load i64, ptr %currentIndex_14, align 8, !tbaa !41
  %inc = add i64 %21, 1
  store i64 %inc, ptr %currentIndex_14, align 8, !tbaa !41
  %currentIndex_15 = getelementptr inbounds nuw %"class.QuantLib::MultiStepRatchet", ptr %this1, i32 0, i32 11
  %22 = load i64, ptr %currentIndex_15, align 8, !tbaa !41
  %lastIndex_ = getelementptr inbounds nuw %"class.QuantLib::MultiStepRatchet", ptr %this1, i32 0, i32 8
  %23 = load i64, ptr %lastIndex_, align 8, !tbaa !39
  %cmp = icmp eq i64 %22, %23
  call void @llvm.lifetime.end.p0(i64 8, ptr %currentCoupon) #14
  call void @llvm.lifetime.end.p0(i64 8, ptr %liborRate) #14
  ret i1 %cmp
}