; Function Attrs: mustprogress uwtable
define noundef zeroext i1 @_ZN8QuantLib16MultiStepRatchet12nextTimeStepERKNS_10CurveStateERSt6vectorImSaImEERS4_IS4_INS_23MarketModelMultiProduct8CashFlowESaIS9_EESaISB_EE(ptr nocapture noundef nonnull align 8 dereferenceable(280) %this, ptr noundef nonnull align 8 dereferenceable(64) %currentState, ptr nocapture noundef nonnull readonly align 8 dereferenceable(24) %numberCashFlowsThisStep, ptr nocapture noundef nonnull readonly align 8 dereferenceable(24) %genCashFlows) unnamed_addr #1 align 2 {
entry:
  %currentIndex_ = getelementptr inbounds nuw i8, ptr %this, i64 272
  %0 = load i64, ptr %currentIndex_, align 8, !tbaa !42
  %vtable = load ptr, ptr %currentState, align 8, !tbaa !12
  %vfn = getelementptr inbounds i8, ptr %vtable, i64 24
  %1 = load ptr, ptr %vfn, align 8
  %call = tail call noundef double %1(ptr noundef nonnull align 8 dereferenceable(64) %currentState, i64 noundef %0)
  %gearingOfFloor_ = getelementptr inbounds nuw i8, ptr %this, i64 208
  %2 = load double, ptr %gearingOfFloor_, align 8, !tbaa !14
  %floor_ = getelementptr inbounds nuw i8, ptr %this, i64 264
  %3 = load double, ptr %floor_, align 8, !tbaa !43
  %spreadOfFloor_ = getelementptr inbounds nuw i8, ptr %this, i64 224
  %4 = load double, ptr %spreadOfFloor_, align 8, !tbaa !33
  %5 = tail call double @llvm.fmuladd.f64(double %2, double %3, double %4)
  %gearingOfFixing_ = getelementptr inbounds nuw i8, ptr %this, i64 216
  %6 = load double, ptr %gearingOfFixing_, align 8, !tbaa !32
  %spreadOfFixing_ = getelementptr inbounds nuw i8, ptr %this, i64 232
  %7 = load double, ptr %spreadOfFixing_, align 8, !tbaa !34
  %8 = tail call double @llvm.fmuladd.f64(double %6, double %call, double %7)
  %cmp.i = fcmp olt double %5, %8
  %.sroa.speculated = select i1 %cmp.i, double %8, double %5
  %9 = load i64, ptr %currentIndex_, align 8, !tbaa !42
  %10 = load ptr, ptr %genCashFlows, align 8, !tbaa !44
  %11 = load ptr, ptr %10, align 8, !tbaa !46
  store i64 %9, ptr %11, align 8, !tbaa !48
  %multiplier_ = getelementptr inbounds nuw i8, ptr %this, i64 240
  %12 = load double, ptr %multiplier_, align 8, !tbaa !35
  %accruals_ = getelementptr inbounds nuw i8, ptr %this, i64 160
  %13 = load ptr, ptr %accruals_, align 8, !tbaa !10
  %add.ptr.i = getelementptr inbounds nuw double, ptr %13, i64 %9
  %14 = load double, ptr %add.ptr.i, align 8, !tbaa !50
  %mul = fmul double %12, %14
  %mul9 = fmul double %.sroa.speculated, %mul
  %amount = getelementptr inbounds nuw i8, ptr %11, i64 8
  store double %mul9, ptr %amount, align 8, !tbaa !51
  store double %.sroa.speculated, ptr %floor_, align 8, !tbaa !43
  %15 = load ptr, ptr %numberCashFlowsThisStep, align 8, !tbaa !38
  store i64 1, ptr %15, align 8, !tbaa !52
  %16 = load i64, ptr %currentIndex_, align 8, !tbaa !42
  %inc = add i64 %16, 1
  store i64 %inc, ptr %currentIndex_, align 8, !tbaa !42
  %lastIndex_ = getelementptr inbounds nuw i8, ptr %this, i64 248
  %17 = load i64, ptr %lastIndex_, align 8, !tbaa !36
  %cmp = icmp eq i64 %inc, %17
  ret i1 %cmp
}